target datalayout = "e-m:e-p270:32:32-p271:32:32-p272:64:64-i64:64-i128:128-f80:128-n8:16:32:64-S128"
target triple = "x86_64-pc-linux-gnu"

%struct.singleTracker = type { ptr, i32 }
%struct.ReportEventCompositeCommand = type { i8, i32, [1 x %struct.CommandSingle] }
%struct.CommandSingle = type { i32, %union.anon.0 }
%union.anon.0 = type { %struct.EventCommandSingle }
%struct.EventCommandSingle = type { i8, i32, %struct.EventInfo }
%struct.EventInfo = type { i32, ptr, i8, ptr, ptr, i64, ptr, %union.anon.1 }
%union.anon.1 = type { %struct.anon.2 }
%struct.anon.2 = type { ptr, ptr, i8, %union.jvalue }
%union.jvalue = type { i64 }

; Function Attrs: nounwind uwtable
define internal zeroext i8 @enumForCopyingSingles(ptr noundef %0, ptr noundef %1) #0 {
  %3 = alloca ptr, align 8
  %4 = alloca ptr, align 8
  %5 = alloca ptr, align 8
  store ptr %0, ptr %3, align 8
  store ptr %1, ptr %4, align 8
  %6 = load ptr, ptr %4, align 8
  store ptr %6, ptr %5, align 8
  %7 = load ptr, ptr %5, align 8
  %8 = getelementptr inbounds %struct.singleTracker, ptr %7, i32 0, i32 0
  %9 = load ptr, ptr %8, align 8
  %10 = getelementptr inbounds %struct.ReportEventCompositeCommand, ptr %9, i32 0, i32 2
  %11 = load ptr, ptr %5, align 8
  %12 = getelementptr inbounds %struct.singleTracker, ptr %11, i32 0, i32 1
  %13 = load i32, ptr %12, align 8
  %14 = add nsw i32 %13, 1
  store i32 %14, ptr %12, align 8
  %15 = sext i32 %13 to i64
  %16 = getelementptr inbounds [1 x %struct.CommandSingle], ptr %10, i64 0, i64 %15
  %17 = load ptr, ptr %3, align 8
  call void @llvm.memcpy.p0.p0.i64(ptr align 8 %16, ptr align 1 %17, i64 104, i1 false)
  ret i8 1
}