; Function Attrs: mustprogress nofree norecurse nosync nounwind willreturn memory(readwrite, inaccessiblemem: none) uwtable
define internal noundef zeroext i8 @enumForCopyingSingles(ptr nocapture noundef readonly %0, ptr nocapture noundef %1) #6 {
  %3 = load ptr, ptr %1, align 8
  %4 = getelementptr inbounds i8, ptr %3, i64 8
  %5 = getelementptr inbounds i8, ptr %1, i64 8
  %6 = load i32, ptr %5, align 8
  %7 = add nsw i32 %6, 1
  store i32 %7, ptr %5, align 8
  %8 = sext i32 %6 to i64
  %9 = getelementptr inbounds [1 x %struct.CommandSingle], ptr %4, i64 0, i64 %8
  tail call void @llvm.memcpy.p0.p0.i64(ptr noundef nonnull align 8 dereferenceable(104) %9, ptr noundef nonnull align 1 dereferenceable(104) %0, i64 104, i1 false)
  ret i8 1
}